target datalayout = "e-m:e-p270:32:32-p271:32:32-p272:64:64-i64:64-i128:128-f80:128-n8:16:32:64-S128"
target triple = "x86_64-unknown-linux-gnu"

%"struct.std::_Tuple_impl.45" = type { %"struct.std::_Head_base.46" }
%"struct.std::_Head_base.46" = type { %"class.grpc_core::Arena::PooledDeleter" }
%"class.grpc_core::Arena::PooledDeleter" = type { i8 }
%struct.grpc_slice = type { ptr, %"union.grpc_slice::grpc_slice_data" }
%"union.grpc_slice::grpc_slice_data" = type { %"struct.grpc_slice::grpc_slice_data::grpc_slice_refcounted", [8 x i8] }
%"struct.grpc_slice::grpc_slice_data::grpc_slice_refcounted" = type { i64, ptr }
%class.anon.147 = type { ptr }
%"class.grpc_core::promise_detail::PromiseLike.180" = type { %"class.grpc_core::promise_detail::Curried.181" }
%"class.grpc_core::promise_detail::Curried.181" = type { %class.anon.147, %"class.std::unique_ptr.159" }
%"class.std::unique_ptr.159" = type { %"struct.std::__uniq_ptr_data.160" }
%"struct.std::__uniq_ptr_data.160" = type { %"class.std::__uniq_ptr_impl.161" }
%"class.std::__uniq_ptr_impl.161" = type { %"class.std::tuple.162" }
%"class.std::tuple.162" = type { %"struct.std::_Tuple_impl.163" }
%"struct.std::_Tuple_impl.163" = type { %"struct.std::_Tuple_impl.45", %"struct.std::_Head_base.164" }
%"struct.std::_Head_base.164" = type { ptr }
%"class.grpc_core::Message" = type <{ %"class.grpc_core::SliceBuffer", i32, [4 x i8] }>
%"class.grpc_core::SliceBuffer" = type { %struct.grpc_slice_buffer }
%struct.grpc_slice_buffer = type { ptr, ptr, i64, i64, i64, [7 x %struct.grpc_slice] }

; Function Attrs: mustprogress nounwind uwtable
define linkonce_odr noundef nonnull align 1 dereferenceable(1) ptr @_ZNSt10_Head_baseILm1EN9grpc_core5Arena13PooledDeleterELb0EE7_M_headERS3_(ptr noundef nonnull align 1 dereferenceable(1) %__b) #5 comdat align 2 {
entry:
  %__b.addr = alloca ptr, align 8
  store ptr %__b, ptr %__b.addr, align 8
  %0 = load ptr, ptr %__b.addr, align 8
  %_M_head_impl = getelementptr inbounds %"struct.std::_Head_base.46", ptr %0, i32 0, i32 0
  ret ptr %_M_head_impl
}

; Function Attrs: mustprogress nounwind uwtable
define linkonce_odr noundef nonnull align 1 dereferenceable(1) ptr @_ZNSt11_Tuple_implILm1EJN9grpc_core5Arena13PooledDeleterEEE7_M_headERS3_(ptr noundef nonnull align 1 dereferenceable(1) %__t) #5 comdat align 2 {
entry:
  %__t.addr = alloca ptr, align 8
  store ptr %__t, ptr %__t.addr, align 8
  %0 = load ptr, ptr %__t.addr, align 8
  %call = call noundef nonnull align 1 dereferenceable(1) ptr @_ZNSt10_Head_baseILm1EN9grpc_core5Arena13PooledDeleterELb0EE7_M_headERS3_(ptr noundef nonnull align 1 dereferenceable(1) %0) #3
  ret ptr %call
}

; Function Attrs: mustprogress nounwind uwtable
define linkonce_odr noundef nonnull align 8 dereferenceable(8) ptr @_ZNSt10_Head_baseILm0EPN9grpc_core7MessageELb0EE7_M_headERS3_(ptr noundef nonnull align 8 dereferenceable(8) %__b) #5 comdat align 2 {
entry:
  %__b.addr = alloca ptr, align 8
  store ptr %__b, ptr %__b.addr, align 8
  %0 = load ptr, ptr %__b.addr, align 8
  %_M_head_impl = getelementptr inbounds %"struct.std::_Head_base.164", ptr %0, i32 0, i32 0
  ret ptr %_M_head_impl
}

; Function Attrs: mustprogress nounwind uwtable
define linkonce_odr noundef nonnull align 1 dereferenceable(1) ptr @_ZSt12__get_helperILm1EN9grpc_core5Arena13PooledDeleterEJEERT0_RSt11_Tuple_implIXT_EJS3_DpT1_EE(ptr noundef nonnull align 1 dereferenceable(1) %__t) #5 comdat {
entry:
  %__t.addr = alloca ptr, align 8
  store ptr %__t, ptr %__t.addr, align 8
  %0 = load ptr, ptr %__t.addr, align 8
  %call = call noundef nonnull align 1 dereferenceable(1) ptr @_ZNSt11_Tuple_implILm1EJN9grpc_core5Arena13PooledDeleterEEE7_M_headERS3_(ptr noundef nonnull align 1 dereferenceable(1) %0) #3
  ret ptr %call
}

; Function Attrs: mustprogress nounwind uwtable
define linkonce_odr noundef nonnull align 8 dereferenceable(8) ptr @_ZNSt11_Tuple_implILm0EJPN9grpc_core7MessageENS0_5Arena13PooledDeleterEEE7_M_headERS5_(ptr noundef nonnull align 8 dereferenceable(16) %__t) #5 comdat align 2 {
entry:
  %__t.addr = alloca ptr, align 8
  store ptr %__t, ptr %__t.addr, align 8
  %0 = load ptr, ptr %__t.addr, align 8
  %add.ptr = getelementptr inbounds i8, ptr %0, i64 8
  %call = call noundef nonnull align 8 dereferenceable(8) ptr @_ZNSt10_Head_baseILm0EPN9grpc_core7MessageELb0EE7_M_headERS3_(ptr noundef nonnull align 8 dereferenceable(8) %add.ptr) #3
  ret ptr %call
}

; Function Attrs: mustprogress nounwind uwtable
define linkonce_odr void @_ZN9grpc_core11SliceBufferD2Ev(ptr noundef nonnull align 8 dereferenceable(264) %this) unnamed_addr #5 comdat align 2 personality ptr @__gxx_personality_v0 {
entry:
  %this.addr = alloca ptr, align 8
  store ptr %this, ptr %this.addr, align 8
  %this1 = load ptr, ptr %this.addr, align 8
  %slice_buffer_ = getelementptr inbounds %"class.grpc_core::SliceBuffer", ptr %this1, i32 0, i32 0
  invoke void @grpc_slice_buffer_destroy(ptr noundef %slice_buffer_)
          to label %invoke.cont unwind label %terminate.lpad

invoke.cont:                                      ; preds = %entry
  ret void

terminate.lpad:                                   ; preds = %entry
  %0 = landingpad { ptr, i32 }
          catch ptr null
  %1 = extractvalue { ptr, i32 } %0, 0
  call void @__clang_call_terminate(ptr %1) #22
  unreachable
}

; Function Attrs: mustprogress nounwind uwtable
define linkonce_odr noundef nonnull align 1 dereferenceable(1) ptr @_ZSt3getILm1EJPN9grpc_core7MessageENS0_5Arena13PooledDeleterEEERNSt13tuple_elementIXT_ESt5tupleIJDpT0_EEE4typeERS9_(ptr noundef nonnull align 8 dereferenceable(16) %__t) #5 comdat {
entry:
  %__t.addr = alloca ptr, align 8
  store ptr %__t, ptr %__t.addr, align 8
  %0 = load ptr, ptr %__t.addr, align 8
  %call = call noundef nonnull align 1 dereferenceable(1) ptr @_ZSt12__get_helperILm1EN9grpc_core5Arena13PooledDeleterEJEERT0_RSt11_Tuple_implIXT_EJS3_DpT1_EE(ptr noundef nonnull align 1 dereferenceable(1) %0) #3
  ret ptr %call
}

; Function Attrs: mustprogress nounwind uwtable
define linkonce_odr noundef nonnull align 8 dereferenceable(8) ptr @_ZSt12__get_helperILm0EPN9grpc_core7MessageEJNS0_5Arena13PooledDeleterEEERT0_RSt11_Tuple_implIXT_EJS5_DpT1_EE(ptr noundef nonnull align 8 dereferenceable(16) %__t) #5 comdat {
entry:
  %__t.addr = alloca ptr, align 8
  store ptr %__t, ptr %__t.addr, align 8
  %0 = load ptr, ptr %__t.addr, align 8
  %call = call noundef nonnull align 8 dereferenceable(8) ptr @_ZNSt11_Tuple_implILm0EJPN9grpc_core7MessageENS0_5Arena13PooledDeleterEEE7_M_headERS5_(ptr noundef nonnull align 8 dereferenceable(16) %0) #3
  ret ptr %call
}

; Function Attrs: mustprogress nounwind uwtable
define linkonce_odr void @_ZN9grpc_core7MessageD2Ev(ptr noundef nonnull align 8 dereferenceable(268) %this) unnamed_addr #5 comdat align 2 {
entry:
  %this.addr = alloca ptr, align 8
  store ptr %this, ptr %this.addr, align 8
  %this1 = load ptr, ptr %this.addr, align 8
  %payload_ = getelementptr inbounds %"class.grpc_core::Message", ptr %this1, i32 0, i32 0
  call void @_ZN9grpc_core11SliceBufferD2Ev(ptr noundef nonnull align 8 dereferenceable(264) %payload_) #3
  ret void
}

; Function Attrs: mustprogress nounwind uwtable
define linkonce_odr noundef nonnull align 1 dereferenceable(1) ptr @_ZNSt15__uniq_ptr_implIN9grpc_core7MessageENS0_5Arena13PooledDeleterEE10_M_deleterEv(ptr noundef nonnull align 8 dereferenceable(16) %this) #5 comdat align 2 {
entry:
  %this.addr = alloca ptr, align 8
  store ptr %this, ptr %this.addr, align 8
  %this1 = load ptr, ptr %this.addr, align 8
  %_M_t = getelementptr inbounds %"class.std::__uniq_ptr_impl.161", ptr %this1, i32 0, i32 0
  %call = call noundef nonnull align 1 dereferenceable(1) ptr @_ZSt3getILm1EJPN9grpc_core7MessageENS0_5Arena13PooledDeleterEEERNSt13tuple_elementIXT_ESt5tupleIJDpT0_EEE4typeERS9_(ptr noundef nonnull align 8 dereferenceable(16) %_M_t) #3
  ret ptr %call
}

; Function Attrs: mustprogress nounwind uwtable
define linkonce_odr noundef nonnull align 8 dereferenceable(8) ptr @_ZSt3getILm0EJPN9grpc_core7MessageENS0_5Arena13PooledDeleterEEERNSt13tuple_elementIXT_ESt5tupleIJDpT0_EEE4typeERS9_(ptr noundef nonnull align 8 dereferenceable(16) %__t) #5 comdat {
entry:
  %__t.addr = alloca ptr, align 8
  store ptr %__t, ptr %__t.addr, align 8
  %0 = load ptr, ptr %__t.addr, align 8
  %call = call noundef nonnull align 8 dereferenceable(8) ptr @_ZSt12__get_helperILm0EPN9grpc_core7MessageEJNS0_5Arena13PooledDeleterEEERT0_RSt11_Tuple_implIXT_EJS5_DpT1_EE(ptr noundef nonnull align 8 dereferenceable(16) %0) #3
  ret ptr %call
}

; Function Attrs: mustprogress nounwind uwtable
define linkonce_odr void @_ZN9grpc_core5Arena13PooledDeleterclINS_7MessageEEEvPT_(ptr noundef nonnull align 1 dereferenceable(1) %this, ptr noundef %p) #5 comdat align 2 {
entry:
  %this.addr = alloca ptr, align 8
  %p.addr = alloca ptr, align 8
  store ptr %this, ptr %this.addr, align 8
  store ptr %p, ptr %p.addr, align 8
  %this1 = load ptr, ptr %this.addr, align 8
  %delete_ = getelementptr inbounds %"class.grpc_core::Arena::PooledDeleter", ptr %this1, i32 0, i32 0
  %0 = load i8, ptr %delete_, align 1
  %tobool = trunc i8 %0 to i1
  br i1 %tobool, label %if.then, label %if.end

if.then:                                          ; preds = %entry
  %1 = load ptr, ptr %p.addr, align 8
  %isnull = icmp eq ptr %1, null
  br i1 %isnull, label %delete.end, label %delete.notnull

delete.notnull:                                   ; preds = %if.then
  call void @_ZN9grpc_core7MessageD2Ev(ptr noundef nonnull align 8 dereferenceable(268) %1) #3
  call void @_ZdlPv(ptr noundef %1) #21
  br label %delete.end

delete.end:                                       ; preds = %delete.notnull, %if.then
  br label %if.end

if.end:                                           ; preds = %delete.end, %entry
  ret void
}

; Function Attrs: mustprogress nounwind uwtable
define linkonce_odr noundef nonnull align 1 dereferenceable(1) ptr @_ZNSt10unique_ptrIN9grpc_core7MessageENS0_5Arena13PooledDeleterEE11get_deleterEv(ptr noundef nonnull align 8 dereferenceable(16) %this) #5 comdat align 2 {
entry:
  %this.addr = alloca ptr, align 8
  store ptr %this, ptr %this.addr, align 8
  %this1 = load ptr, ptr %this.addr, align 8
  %_M_t = getelementptr inbounds %"class.std::unique_ptr.159", ptr %this1, i32 0, i32 0
  %call = call noundef nonnull align 1 dereferenceable(1) ptr @_ZNSt15__uniq_ptr_implIN9grpc_core7MessageENS0_5Arena13PooledDeleterEE10_M_deleterEv(ptr noundef nonnull align 8 dereferenceable(16) %_M_t) #3
  ret ptr %call
}

; Function Attrs: mustprogress nounwind uwtable
define linkonce_odr noundef nonnull align 8 dereferenceable(8) ptr @_ZNSt15__uniq_ptr_implIN9grpc_core7MessageENS0_5Arena13PooledDeleterEE6_M_ptrEv(ptr noundef nonnull align 8 dereferenceable(16) %this) #5 comdat align 2 {
entry:
  %this.addr = alloca ptr, align 8
  store ptr %this, ptr %this.addr, align 8
  %this1 = load ptr, ptr %this.addr, align 8
  %_M_t = getelementptr inbounds %"class.std::__uniq_ptr_impl.161", ptr %this1, i32 0, i32 0
  %call = call noundef nonnull align 8 dereferenceable(8) ptr @_ZSt3getILm0EJPN9grpc_core7MessageENS0_5Arena13PooledDeleterEEERNSt13tuple_elementIXT_ESt5tupleIJDpT0_EEE4typeERS9_(ptr noundef nonnull align 8 dereferenceable(16) %_M_t) #3
  ret ptr %call
}

; Function Attrs: mustprogress nounwind uwtable
define linkonce_odr void @_ZNSt10unique_ptrIN9grpc_core7MessageENS0_5Arena13PooledDeleterEED2Ev(ptr noundef nonnull align 8 dereferenceable(16) %this) unnamed_addr #5 comdat align 2 personality ptr @__gxx_personality_v0 {
entry:
  %this.addr = alloca ptr, align 8
  %__ptr = alloca ptr, align 8
  store ptr %this, ptr %this.addr, align 8
  %this1 = load ptr, ptr %this.addr, align 8
  %_M_t = getelementptr inbounds %"class.std::unique_ptr.159", ptr %this1, i32 0, i32 0
  %call = call noundef nonnull align 8 dereferenceable(8) ptr @_ZNSt15__uniq_ptr_implIN9grpc_core7MessageENS0_5Arena13PooledDeleterEE6_M_ptrEv(ptr noundef nonnull align 8 dereferenceable(16) %_M_t) #3
  store ptr %call, ptr %__ptr, align 8
  %0 = load ptr, ptr %__ptr, align 8
  %1 = load ptr, ptr %0, align 8
  %cmp = icmp ne ptr %1, null
  br i1 %cmp, label %if.then, label %if.end

if.then:                                          ; preds = %entry
  %call2 = call noundef nonnull align 1 dereferenceable(1) ptr @_ZNSt10unique_ptrIN9grpc_core7MessageENS0_5Arena13PooledDeleterEE11get_deleterEv(ptr noundef nonnull align 8 dereferenceable(16) %this1) #3
  %2 = load ptr, ptr %__ptr, align 8
  %3 = load ptr, ptr %2, align 8
  invoke void @_ZN9grpc_core5Arena13PooledDeleterclINS_7MessageEEEvPT_(ptr noundef nonnull align 1 dereferenceable(1) %call2, ptr noundef %3)
          to label %invoke.cont unwind label %terminate.lpad

invoke.cont:                                      ; preds = %if.then
  br label %if.end

if.end:                                           ; preds = %invoke.cont, %entry
  %4 = load ptr, ptr %__ptr, align 8
  store ptr null, ptr %4, align 8
  ret void

terminate.lpad:                                   ; preds = %if.then
  %5 = landingpad { ptr, i32 }
          catch ptr null
  %6 = extractvalue { ptr, i32 } %5, 0
  call void @__clang_call_terminate(ptr %6) #22
  unreachable
}

; Function Attrs: mustprogress nounwind uwtable
define internal void @_ZN9grpc_core14promise_detail7CurriedIZZZNS_23PromiseTracingFilterForEPK19grpc_channel_filterEN13DerivedFilterC1ES4_ENKUlP20grpc_channel_elementPNS_18CallSpineInterfaceEE_clES7_S9_EUlSt10unique_ptrINS_7MessageENS_5Arena13PooledDeleterEEE_SF_ED2Ev(ptr noundef nonnull align 8 dereferenceable(24) %this) unnamed_addr #5 align 2 {
entry:
  %this.addr = alloca ptr, align 8
  store ptr %this, ptr %this.addr, align 8
  %this1 = load ptr, ptr %this.addr, align 8
  %arg_ = getelementptr inbounds %"class.grpc_core::promise_detail::Curried.181", ptr %this1, i32 0, i32 1
  call void @_ZNSt10unique_ptrIN9grpc_core7MessageENS0_5Arena13PooledDeleterEED2Ev(ptr noundef nonnull align 8 dereferenceable(16) %arg_) #3
  ret void
}

; Function Attrs: mustprogress nounwind uwtable
define internal void @_ZN9grpc_core14promise_detail11PromiseLikeINS0_7CurriedIZZZNS_23PromiseTracingFilterForEPK19grpc_channel_filterEN13DerivedFilterC1ES5_ENKUlP20grpc_channel_elementPNS_18CallSpineInterfaceEE_clES8_SA_EUlSt10unique_ptrINS_7MessageENS_5Arena13PooledDeleterEEE_SG_EEvED2Ev(ptr noundef nonnull align 8 dereferenceable(24) %this) unnamed_addr #5 align 2 {
entry:
  %this.addr = alloca ptr, align 8
  store ptr %this, ptr %this.addr, align 8
  %this1 = load ptr, ptr %this.addr, align 8
  %f_ = getelementptr inbounds %"class.grpc_core::promise_detail::PromiseLike.180", ptr %this1, i32 0, i32 0
  call void @_ZN9grpc_core14promise_detail7CurriedIZZZNS_23PromiseTracingFilterForEPK19grpc_channel_filterEN13DerivedFilterC1ES4_ENKUlP20grpc_channel_elementPNS_18CallSpineInterfaceEE_clES7_S9_EUlSt10unique_ptrINS_7MessageENS_5Arena13PooledDeleterEEE_SF_ED2Ev(ptr noundef nonnull align 8 dereferenceable(24) %f_) #3
  ret void
}

; Function Attrs: mustprogress nounwind uwtable
define internal void @_ZN9grpc_core15InterceptorListISt10unique_ptrINS_7MessageENS_5Arena13PooledDeleterEEE7MapImplIZZZNS_23PromiseTracingFilterForEPK19grpc_channel_filterEN13DerivedFilterC1ESA_ENKUlP20grpc_channel_elementPNS_18CallSpineInterfaceEE_clESD_SF_EUlS5_E_ZNS6_9AppendMapISH_EEvT_NS_13DebugLocationEEUlvE_E7DestroyEPv(ptr noundef nonnull align 8 dereferenceable(24) %this, ptr noundef %memory) unnamed_addr #5 align 2 {
entry:
  %this.addr = alloca ptr, align 8
  %memory.addr = alloca ptr, align 8
  store ptr %this, ptr %this.addr, align 8
  store ptr %memory, ptr %memory.addr, align 8
  %0 = load ptr, ptr %memory.addr, align 8
  call void @_ZN9grpc_core14promise_detail11PromiseLikeINS0_7CurriedIZZZNS_23PromiseTracingFilterForEPK19grpc_channel_filterEN13DerivedFilterC1ES5_ENKUlP20grpc_channel_elementPNS_18CallSpineInterfaceEE_clES8_SA_EUlSt10unique_ptrINS_7MessageENS_5Arena13PooledDeleterEEE_SG_EEvED2Ev(ptr noundef nonnull align 8 dereferenceable(24) %0) #3
  ret void
}